(dp0
S'EX_SETTINGS'
p1
(lp2
(dp3
S'RELATIVE_FOLDER'
p4
S'MeanAndStd-1'
p5
sS'FILES_TO_COMPLETE'
p6
(lp7
S'compute_mean_std.py'
p8
asS'ORDINAL_NUMBER'
p9
S'1'
p10
sS'FILE_TO_TEST'
p11
S'test.py'
p12
sS'POINTS'
p13
S'4'
p14
sS'OUTPUT_PARSER'
p15
S'parser.py'
p16
sS'SHORT_DESCRIPTION'
p17
S'Calculate mean and standard deviation'
p18
sasS'ASSIGNMENT_SETTINGS'
p19
(dp20
S'DUE_DATE'
p21
I00
sS'ASSIGNMENT_NUMBER'
p22
g10
sS'ASSIGNMENT_TITLE'
p23
S'Mean and Standard Deviation'
p24
sS'PENALITY_PERCENT'
p25
S'50'
p26
sS'ACTIVATION_DATE'
p27
I00
sS'COURSE_ID'
p28
g10
sS'HARD_DATE'
p29
I00
ss.