(dp0
S'EX_SETTINGS'
p1
(lp2
(dp3
S'RELATIVE_FOLDER'
p4
S'MeanAndStd-4'
p5
sS'FILES_TO_COMPLETE'
p6
(lp7
S'compute_mean_std.py'
p8
asS'GROUP'
p9
S'mean std'
p10
sS'ORDINAL_NUMBER'
p11
S'4'
p12
sS'FILE_TO_TEST'
p13
S'test.py'
p14
sS'POINTS'
p15
g12
sS'OUTPUT_PARSER'
p16
S'parser.py'
p17
sS'SHORT_DESCRIPTION'
p18
S'Calculate mean and standard deviation'
p19
sa(dp20
g4
S'MeanAndStd-1'
p21
sg6
(lp22
S'compute_mean_std.py'
p23
asg9
S'mean std'
p24
sg11
S'1'
p25
sg13
S'test.py'
p26
sg15
g12
sg16
S'parser.py'
p27
sg18
S'Calculate mean and standard deviation'
p28
sa(dp29
g4
S'MeanAndStd-3'
p30
sg6
(lp31
S'compute_mean_std.py'
p32
asg9
S'mean std'
p33
sg11
S'3'
p34
sg13
S'test.py'
p35
sg15
g12
sg16
S'parser.py'
p36
sg18
S'Calculate mean and standard deviation'
p37
sa(dp38
g4
S'MeanAndStd-2'
p39
sg6
(lp40
S'compute_mean_std.py'
p41
asg9
S'mean std'
p42
sg11
S'2'
p43
sg13
S'test.py'
p44
sg15
g12
sg16
S'parser.py'
p45
sg18
S'Calculate mean and standard deviation'
p46
sasS'ASSIGNMENT_SETTINGS'
p47
(dp48
S'COURSE_ID'
p49
g25
sS'ACTIVATION_DATE'
p50
I00
sS'ASSIGNMENT_TITLE'
p51
S'Mean and Standard Deviation'
p52
sS'PENALITY_PERCENT'
p53
S'50'
p54
sS'HARD_DATE'
p55
I00
ss.