(dp0
S'EX_SETTINGS'
p1
(lp2
(dp3
S'RELATIVE_FOLDER'
p4
S'ex_2'
p5
sS'FILES_TO_COMPLETE'
p6
(lp7
S'escape_velocity.py'
p8
asS'NAME'
p9
S'ex_2'
p10
sS'ORDINAL_NUMBER'
p11
S'2'
p12
sS'FILES_TO_TEST'
p13
(lp14
S'test.py'
p15
asS'POINTS'
p16
S'30'
p17
sS'SHORT_DESCRIPTION'
p18
S'Calculate escape velocity'
p19
sa(dp20
g4
S'ex_1'
p21
sg6
(lp22
S'calculate_g.py'
p23
asg11
S'1'
p24
sg13
(lp25
S'test.py'
p26
asg16
S'20'
p27
sg18
S'Calculate Universal Gravitational Constant G'
p28
sasS'ASSIGNMENT_SETTINGS'
p29
(dp30
S'DUE_DATE'
p31
cdatetime
datetime
p32
(S'\x07\xdf\x07\x01\x0c\x00\x00\x00\x00\x00'
p33
tp34
Rp35
sS'ASSIGNMENT_NUMBER'
p36
g24
sS'ASSIGNMENT_TITLE'
p37
S'First semester ending exams'
p38
sS'PENALITY_PERCENT'
p39
S'50'
p40
sS'ACTIVATION_DATE'
p41
g32
(S'\x07\xdf\x06\x01\x00\x00\x00\x00\x00\x00'
p42
tp43
Rp44
sS'COURSE_ID'
p45
g24
sS'HARD_DATE'
p46
g32
(S'\x07\xdf\x07\x01\n\x00\x00\x00\x00\x00'
p47
tp48
Rp49
ss.