(dp0
S'EX_SETTINGS'
p1
(lp2
(dp3
S'RELATIVE_FOLDER'
p4
S'ex_2'
p5
sS'FILES_TO_COMPLETE'
p6
(lp7
S'escape_velocity.py'
p8
asS'NAME'
p9
S'ex_2'
p10
sS'ORDINAL_NUMBER'
p11
S'2'
p12
sS'FILE_TO_TEST'
p13
S'test.py'
p14
sS'POINTS'
p15
S'30'
p16
sS'OUTPUT_PARSER'
p17
S'parser.py'
p18
sS'SHORT_DESCRIPTION'
p19
S'Calculate escape velocity'
p20
sa(dp21
g4
S'ex_1'
p22
sg6
(lp23
S'calculate_g.py'
p24
asg11
S'1'
p25
sg13
S'test.py'
p26
sg15
S'20'
p27
sg17
S'parser.py'
p28
sg19
S'Calculate Universal Gravitational Constant G'
p29
sasS'ASSIGNMENT_SETTINGS'
p30
(dp31
S'DUE_DATE'
p32
cdatetime
datetime
p33
(S'\x07\xdf\x07\x01\x0c\x00\x00\x00\x00\x00'
p34
tp35
Rp36
sS'ASSIGNMENT_NUMBER'
p37
g25
sS'ASSIGNMENT_TITLE'
p38
S'First semester ending exams'
p39
sS'PENALITY_PERCENT'
p40
S'50'
p41
sS'ACTIVATION_DATE'
p42
g33
(S'\x07\xdf\x06\x01\x00\x00\x00\x00\x00\x00'
p43
tp44
Rp45
sS'COURSE_ID'
p46
g25
sS'HARD_DATE'
p47
g33
(S'\x07\xdf\x07\x01\n\x00\x00\x00\x00\x00'
p48
tp49
Rp50
ss.