(dp0
S'EX_SETTINGS'
p1
(lp2
(dp3
S'RELATIVE_FOLDER'
p4
S'ex_2'
p5
sS'FILES_TO_COMPLETE'
p6
(lp7
S'escape_velocity.py'
p8
asS'NAME'
p9
S'ex_2'
p10
sS'ORDINAL_NUMBER'
p11
S'2'
p12
sS'FILE_TO_TEST'
p13
S'test.py'
p14
sS'POINTS'
p15
S'30'
p16
sS'SHORT_DESCRIPTION'
p17
S'Calculate escape velocity'
p18
sa(dp19
g4
S'ex_1'
p20
sg6
(lp21
S'calculate_g.py'
p22
asg11
S'1'
p23
sg13
S'test.py'
p24
sg15
S'20'
p25
sg17
S'Calculate Universal Gravitational Constant G'
p26
sasS'ASSIGNMENT_SETTINGS'
p27
(dp28
S'DUE_DATE'
p29
cdatetime
datetime
p30
(S'\x07\xdf\x07\x01\x0c\x00\x00\x00\x00\x00'
p31
tp32
Rp33
sS'ASSIGNMENT_NUMBER'
p34
g23
sS'ASSIGNMENT_TITLE'
p35
S'First semester ending exams'
p36
sS'PENALITY_PERCENT'
p37
S'50'
p38
sS'ACTIVATION_DATE'
p39
g30
(S'\x07\xdf\x06\x01\x00\x00\x00\x00\x00\x00'
p40
tp41
Rp42
sS'COURSE_ID'
p43
g23
sS'HARD_DATE'
p44
g30
(S'\x07\xdf\x07\x01\n\x00\x00\x00\x00\x00'
p45
tp46
Rp47
ss.