(dp0
S'EX_SETTINGS'
p1
(lp2
(dp3
S'RELATIVE_FOLDER'
p4
S'ex_2'
p5
sS'FILES_TO_COMPLETE'
p6
(lp7
S'escape_velocity.py'
p8
asS'POINTS'
p9
S'30'
p10
sS'GROUP'
p11
S'group1'
p12
sS'NAME'
p13
S'ex_2'
p14
sS'OUTPUT_PARSER'
p15
S'parser.py'
p16
sS'ORDINAL_NUMBER'
p17
S'2'
p18
sS'SHORT_DESCRIPTION'
p19
S'Calculate escape velocity'
p20
sS'FILE_TO_TEST'
p21
S'test.py'
p22
sa(dp23
g4
S'ex_1'
p24
sg6
(lp25
S'calculate_g.py'
p26
asg11
g12
sg17
S'1'
p27
sg21
S'test.py'
p28
sg9
S'20'
p29
sg15
S'parser.py'
p30
sg19
S'Calculate Universal Gravitational Constant G'
p31
sasS'ASSIGNMENT_SETTINGS'
p32
(dp33
S'DUE_DATE'
p34
cdatetime
datetime
p35
(S'\x07\xdf\x07\x01\x0c\x00\x00\x00\x00\x00'
p36
tp37
Rp38
sS'ASSIGNMENT_NUMBER'
p39
g27
sS'ASSIGNMENT_TITLE'
p40
S'First semester ending exams'
p41
sS'PENALITY_PERCENT'
p42
S'50'
p43
sS'ACTIVATION_DATE'
p44
g35
(S'\x07\xdf\x06\x01\x00\x00\x00\x00\x00\x00'
p45
tp46
Rp47
sS'COURSE_ID'
p48
g27
sS'HARD_DATE'
p49
g35
(S'\x07\xdf\x07\x01\n\x00\x00\x00\x00\x00'
p50
tp51
Rp52
ss.